target datalayout = "e-m:e-p270:32:32-p271:32:32-p272:64:64-i64:64-i128:128-f80:128-n8:16:32:64-S128"
target triple = "x86_64-pc-linux-gnu"

; Function Attrs: nounwind uwtable
define internal void @sbr_qmf_deint_bfly_c(ptr noundef %0, ptr noundef %1, ptr noundef %2) #1 {
  %4 = alloca ptr, align 8
  %5 = alloca ptr, align 8
  %6 = alloca ptr, align 8
  %7 = alloca i32, align 4
  store ptr %0, ptr %4, align 8, !tbaa !21
  store ptr %1, ptr %5, align 8, !tbaa !21
  store ptr %2, ptr %6, align 8, !tbaa !21
  call void @llvm.lifetime.start.p0(i64 4, ptr %7) #8
  store i32 0, ptr %7, align 4, !tbaa !23
  br label %8

8:                                                ; preds = %49, %3
  %9 = load i32, ptr %7, align 4, !tbaa !23
  %10 = icmp slt i32 %9, 64
  br i1 %10, label %11, label %52

11:                                               ; preds = %8
  %12 = load ptr, ptr %5, align 8, !tbaa !21
  %13 = load i32, ptr %7, align 4, !tbaa !23
  %14 = sext i32 %13 to i64
  %15 = getelementptr inbounds i32, ptr %12, i64 %14
  %16 = load i32, ptr %15, align 4, !tbaa !23
  %17 = add i32 16, %16
  %18 = load ptr, ptr %6, align 8, !tbaa !21
  %19 = load i32, ptr %7, align 4, !tbaa !23
  %20 = sub nsw i32 63, %19
  %21 = sext i32 %20 to i64
  %22 = getelementptr inbounds i32, ptr %18, i64 %21
  %23 = load i32, ptr %22, align 4, !tbaa !23
  %24 = sub i32 %17, %23
  %25 = ashr i32 %24, 5
  %26 = load ptr, ptr %4, align 8, !tbaa !21
  %27 = load i32, ptr %7, align 4, !tbaa !23
  %28 = sext i32 %27 to i64
  %29 = getelementptr inbounds i32, ptr %26, i64 %28
  store i32 %25, ptr %29, align 4, !tbaa !23
  %30 = load ptr, ptr %5, align 8, !tbaa !21
  %31 = load i32, ptr %7, align 4, !tbaa !23
  %32 = sext i32 %31 to i64
  %33 = getelementptr inbounds i32, ptr %30, i64 %32
  %34 = load i32, ptr %33, align 4, !tbaa !23
  %35 = add i32 16, %34
  %36 = load ptr, ptr %6, align 8, !tbaa !21
  %37 = load i32, ptr %7, align 4, !tbaa !23
  %38 = sub nsw i32 63, %37
  %39 = sext i32 %38 to i64
  %40 = getelementptr inbounds i32, ptr %36, i64 %39
  %41 = load i32, ptr %40, align 4, !tbaa !23
  %42 = add i32 %35, %41
  %43 = ashr i32 %42, 5
  %44 = load ptr, ptr %4, align 8, !tbaa !21
  %45 = load i32, ptr %7, align 4, !tbaa !23
  %46 = sub nsw i32 127, %45
  %47 = sext i32 %46 to i64
  %48 = getelementptr inbounds i32, ptr %44, i64 %47
  store i32 %43, ptr %48, align 4, !tbaa !23
  br label %49

49:                                               ; preds = %11
  %50 = load i32, ptr %7, align 4, !tbaa !23
  %51 = add nsw i32 %50, 1
  store i32 %51, ptr %7, align 4, !tbaa !23
  br label %8, !llvm.loop !37

52:                                               ; preds = %8
  call void @llvm.lifetime.end.p0(i64 4, ptr %7) #8
  ret void
}