; Function Attrs: nofree norecurse nosync nounwind memory(argmem: readwrite) uwtable
define internal void @sbr_qmf_deint_bfly_c(ptr noundef writeonly captures(none) %0, ptr noundef readonly captures(none) %1, ptr noundef readonly captures(none) %2) #1 {
  br label %4

4:                                                ; preds = %3, %4
  %indvars.iv = phi i64 [ 0, %3 ], [ %indvars.iv.next, %4 ]
  %5 = getelementptr inbounds nuw i32, ptr %1, i64 %indvars.iv
  %6 = load i32, ptr %5, align 4, !tbaa !19
  %7 = add i32 %6, 16
  %8 = sub nuw nsw i64 63, %indvars.iv
  %9 = getelementptr inbounds nuw i32, ptr %2, i64 %8
  %10 = load i32, ptr %9, align 4, !tbaa !19
  %11 = sub i32 %7, %10
  %12 = ashr i32 %11, 5
  %13 = getelementptr inbounds nuw i32, ptr %0, i64 %indvars.iv
  store i32 %12, ptr %13, align 4, !tbaa !19
  %14 = load i32, ptr %5, align 4, !tbaa !19
  %15 = add i32 %14, 16
  %16 = load i32, ptr %9, align 4, !tbaa !19
  %17 = add i32 %15, %16
  %18 = ashr i32 %17, 5
  %19 = sub nuw nsw i64 127, %indvars.iv
  %20 = getelementptr inbounds nuw i32, ptr %0, i64 %19
  store i32 %18, ptr %20, align 4, !tbaa !19
  %indvars.iv.next = add nuw nsw i64 %indvars.iv, 1
  %exitcond.not = icmp eq i64 %indvars.iv.next, 64
  br i1 %exitcond.not, label %21, label %4, !llvm.loop !31

21:                                               ; preds = %4
  ret void
}